target datalayout = "e-m:e-p270:32:32-p271:32:32-p272:64:64-i64:64-i128:128-f80:128-n8:16:32:64-S128"
target triple = "x86_64-pc-linux-gnu"

%struct.hwloc_topology = type { i32, i32, i32, ptr, ptr, i64, [20 x i32], [20 x i32], i64, i64, i32, ptr, i64, ptr, i64, [6 x %struct.hwloc_special_level_s], ptr, ptr, %struct.hwloc_binding_hooks, %struct.hwloc_topology_support, %struct.hwloc_infos_s, ptr, ptr, i32, ptr, ptr, i32, i32, ptr, i32, i32, ptr, i32, i32, i32, [5 x float], i32, ptr, ptr, i32, i32, ptr, i32, %struct.hwloc_numanode_attr_s, i32, i32, ptr, i64, i32, ptr, ptr, ptr }
%struct.hwloc_special_level_s = type { i32, ptr, ptr, ptr }
%struct.hwloc_binding_hooks = type { ptr, ptr, ptr, ptr, ptr, ptr, ptr, ptr, ptr, ptr, ptr, ptr, ptr, ptr, ptr, ptr, ptr, ptr, ptr, ptr, ptr, ptr, ptr, ptr }
%struct.hwloc_topology_support = type { ptr, ptr, ptr, ptr }
%struct.hwloc_infos_s = type { ptr, i32, i32 }
%struct.hwloc_numanode_attr_s = type { i64, i32, ptr }
%struct.hwloc_obj = type { i32, ptr, i32, ptr, i64, ptr, i32, i32, ptr, ptr, ptr, i32, ptr, ptr, i32, ptr, ptr, ptr, i32, i32, ptr, i32, ptr, i32, ptr, ptr, ptr, ptr, ptr, %struct.hwloc_infos_s, ptr, i64 }

; Function Attrs: inlinehint nounwind uwtable
define internal ptr @hwloc_get_next_obj_by_depth(ptr noundef %0, i32 noundef %1, ptr noundef %2) #4 {
  %4 = alloca ptr, align 8
  %5 = alloca ptr, align 8
  %6 = alloca i32, align 4
  %7 = alloca ptr, align 8
  store ptr %0, ptr %5, align 8, !tbaa !3
  store i32 %1, ptr %6, align 4, !tbaa !10
  store ptr %2, ptr %7, align 8, !tbaa !51
  %8 = load ptr, ptr %7, align 8, !tbaa !51
  %9 = icmp ne ptr %8, null
  br i1 %9, label %14, label %10

10:                                               ; preds = %3
  %11 = load ptr, ptr %5, align 8, !tbaa !3
  %12 = load i32, ptr %6, align 4, !tbaa !10
  %13 = call ptr @hwloc_get_obj_by_depth(ptr noundef %11, i32 noundef %12, i32 noundef 0) #10
  store ptr %13, ptr %4, align 8
  br label %25

14:                                               ; preds = %3
  %15 = load ptr, ptr %7, align 8, !tbaa !51
  %16 = getelementptr inbounds nuw %struct.hwloc_obj, ptr %15, i32 0, i32 6
  %17 = load i32, ptr %16, align 8, !tbaa !124
  %18 = load i32, ptr %6, align 4, !tbaa !10
  %19 = icmp ne i32 %17, %18
  br i1 %19, label %20, label %21

20:                                               ; preds = %14
  store ptr null, ptr %4, align 8
  br label %25

21:                                               ; preds = %14
  %22 = load ptr, ptr %7, align 8, !tbaa !51
  %23 = getelementptr inbounds nuw %struct.hwloc_obj, ptr %22, i32 0, i32 8
  %24 = load ptr, ptr %23, align 8, !tbaa !122
  store ptr %24, ptr %4, align 8
  br label %25

25:                                               ; preds = %21, %20, %10
  %26 = load ptr, ptr %4, align 8
  ret ptr %26
}

; Function Attrs: inlinehint nounwind uwtable
define internal i32 @hwloc_cpuset_from_nodeset(ptr noundef %0, ptr noundef %1, ptr noundef %2) #4 {
  %4 = alloca i32, align 4
  %5 = alloca ptr, align 8
  %6 = alloca ptr, align 8
  %7 = alloca ptr, align 8
  %8 = alloca i32, align 4
  %9 = alloca ptr, align 8
  %10 = alloca i32, align 4
  store ptr %0, ptr %5, align 8, !tbaa !3
  store ptr %1, ptr %6, align 8, !tbaa !8
  store ptr %2, ptr %7, align 8, !tbaa !8
  call void @llvm.lifetime.start.p0(i64 4, ptr %8) #9
  %11 = load ptr, ptr %5, align 8, !tbaa !3
  %12 = call i32 @hwloc_get_type_depth(ptr noundef %11, i32 noundef 14)
  store i32 %12, ptr %8, align 4, !tbaa !10
  call void @llvm.lifetime.start.p0(i64 8, ptr %9) #9
  store ptr null, ptr %9, align 8, !tbaa !51
  %13 = load ptr, ptr %6, align 8, !tbaa !8
  call void @hwloc_bitmap_zero(ptr noundef %13)
  br label %14

14:                                               ; preds = %37, %3
  %15 = load ptr, ptr %5, align 8, !tbaa !3
  %16 = load i32, ptr %8, align 4, !tbaa !10
  %17 = load ptr, ptr %9, align 8, !tbaa !51
  %18 = call ptr @hwloc_get_next_obj_by_depth(ptr noundef %15, i32 noundef %16, ptr noundef %17)
  store ptr %18, ptr %9, align 8, !tbaa !51
  %19 = icmp ne ptr %18, null
  br i1 %19, label %20, label %38

20:                                               ; preds = %14
  %21 = load ptr, ptr %7, align 8, !tbaa !8
  %22 = load ptr, ptr %9, align 8, !tbaa !51
  %23 = getelementptr inbounds nuw %struct.hwloc_obj, ptr %22, i32 0, i32 2
  %24 = load i32, ptr %23, align 8, !tbaa !53
  %25 = call i32 @hwloc_bitmap_isset(ptr noundef %21, i32 noundef %24) #10
  %26 = icmp ne i32 %25, 0
  br i1 %26, label %27, label %37

27:                                               ; preds = %20
  %28 = load ptr, ptr %6, align 8, !tbaa !8
  %29 = load ptr, ptr %6, align 8, !tbaa !8
  %30 = load ptr, ptr %9, align 8, !tbaa !51
  %31 = getelementptr inbounds nuw %struct.hwloc_obj, ptr %30, i32 0, i32 25
  %32 = load ptr, ptr %31, align 8, !tbaa !58
  %33 = call i32 @hwloc_bitmap_or(ptr noundef %28, ptr noundef %29, ptr noundef %32)
  %34 = icmp slt i32 %33, 0
  br i1 %34, label %35, label %36

35:                                               ; preds = %27
  store i32 -1, ptr %4, align 4
  store i32 1, ptr %10, align 4
  br label %39

36:                                               ; preds = %27
  br label %37

37:                                               ; preds = %36, %20
  br label %14, !llvm.loop !59

38:                                               ; preds = %14
  store i32 0, ptr %4, align 4
  store i32 1, ptr %10, align 4
  br label %39

39:                                               ; preds = %38, %35
  call void @llvm.lifetime.end.p0(i64 8, ptr %9) #9
  call void @llvm.lifetime.end.p0(i64 4, ptr %8) #9
  %40 = load i32, ptr %4, align 4
  ret i32 %40
}

; Function Attrs: nounwind uwtable
define internal i32 @hwloc_get_area_membind_by_nodeset(ptr noundef %0, ptr noundef %1, i64 noundef %2, ptr noundef %3, ptr noundef %4, i32 noundef %5) #0 {
  %7 = alloca i32, align 4
  %8 = alloca ptr, align 8
  %9 = alloca ptr, align 8
  %10 = alloca i64, align 8
  %11 = alloca ptr, align 8
  %12 = alloca ptr, align 8
  %13 = alloca i32, align 4
  store ptr %0, ptr %8, align 8, !tbaa !3
  store ptr %1, ptr %9, align 8, !tbaa !48
  store i64 %2, ptr %10, align 8, !tbaa !40
  store ptr %3, ptr %11, align 8, !tbaa !8
  store ptr %4, ptr %12, align 8, !tbaa !48
  store i32 %5, ptr %13, align 4, !tbaa !10
  %14 = load i32, ptr %13, align 4, !tbaa !10
  %15 = and i32 %14, -64
  %16 = icmp ne i32 %15, 0
  br i1 %16, label %17, label %19

17:                                               ; preds = %6
  %18 = call ptr @__errno_location() #8
  store i32 22, ptr %18, align 4, !tbaa !10
  store i32 -1, ptr %7, align 4
  br label %44

19:                                               ; preds = %6
  %20 = load i64, ptr %10, align 8, !tbaa !40
  %21 = icmp ne i64 %20, 0
  br i1 %21, label %24, label %22

22:                                               ; preds = %19
  %23 = call ptr @__errno_location() #8
  store i32 22, ptr %23, align 4, !tbaa !10
  store i32 -1, ptr %7, align 4
  br label %44

24:                                               ; preds = %19
  %25 = load ptr, ptr %8, align 8, !tbaa !3
  %26 = getelementptr inbounds nuw %struct.hwloc_topology, ptr %25, i32 0, i32 18
  %27 = getelementptr inbounds nuw %struct.hwloc_binding_hooks, ptr %26, i32 0, i32 18
  %28 = load ptr, ptr %27, align 8, !tbaa !64
  %29 = icmp ne ptr %28, null
  br i1 %29, label %30, label %42

30:                                               ; preds = %24
  %31 = load ptr, ptr %8, align 8, !tbaa !3
  %32 = getelementptr inbounds nuw %struct.hwloc_topology, ptr %31, i32 0, i32 18
  %33 = getelementptr inbounds nuw %struct.hwloc_binding_hooks, ptr %32, i32 0, i32 18
  %34 = load ptr, ptr %33, align 8, !tbaa !64
  %35 = load ptr, ptr %8, align 8, !tbaa !3
  %36 = load ptr, ptr %9, align 8, !tbaa !48
  %37 = load i64, ptr %10, align 8, !tbaa !40
  %38 = load ptr, ptr %11, align 8, !tbaa !8
  %39 = load ptr, ptr %12, align 8, !tbaa !48
  %40 = load i32, ptr %13, align 4, !tbaa !10
  %41 = call i32 %34(ptr noundef %35, ptr noundef %36, i64 noundef %37, ptr noundef %38, ptr noundef %39, i32 noundef %40)
  store i32 %41, ptr %7, align 4
  br label %44

42:                                               ; preds = %24
  %43 = call ptr @__errno_location() #8
  store i32 38, ptr %43, align 4, !tbaa !10
  store i32 -1, ptr %7, align 4
  br label %44

44:                                               ; preds = %42, %30, %22, %17
  %45 = load i32, ptr %7, align 4
  ret i32 %45
}

; Function Attrs: nounwind uwtable
define i32 @hwloc_get_area_membind(ptr noundef %0, ptr noundef %1, i64 noundef %2, ptr noundef %3, ptr noundef %4, i32 noundef %5) #0 {
  %7 = alloca ptr, align 8
  %8 = alloca ptr, align 8
  %9 = alloca i64, align 8
  %10 = alloca ptr, align 8
  %11 = alloca ptr, align 8
  %12 = alloca i32, align 4
  %13 = alloca i32, align 4
  %14 = alloca ptr, align 8
  store ptr %0, ptr %7, align 8, !tbaa !3
  store ptr %1, ptr %8, align 8, !tbaa !48
  store i64 %2, ptr %9, align 8, !tbaa !40
  store ptr %3, ptr %10, align 8, !tbaa !8
  store ptr %4, ptr %11, align 8, !tbaa !48
  store i32 %5, ptr %12, align 4, !tbaa !10
  call void @llvm.lifetime.start.p0(i64 4, ptr %13) #9
  %15 = load i32, ptr %12, align 4, !tbaa !10
  %16 = and i32 %15, 32
  %17 = icmp ne i32 %16, 0
  br i1 %17, label %18, label %26

18:                                               ; preds = %6
  %19 = load ptr, ptr %7, align 8, !tbaa !3
  %20 = load ptr, ptr %8, align 8, !tbaa !48
  %21 = load i64, ptr %9, align 8, !tbaa !40
  %22 = load ptr, ptr %10, align 8, !tbaa !8
  %23 = load ptr, ptr %11, align 8, !tbaa !48
  %24 = load i32, ptr %12, align 4, !tbaa !10
  %25 = call i32 @hwloc_get_area_membind_by_nodeset(ptr noundef %19, ptr noundef %20, i64 noundef %21, ptr noundef %22, ptr noundef %23, i32 noundef %24)
  store i32 %25, ptr %13, align 4, !tbaa !10
  br label %44

26:                                               ; preds = %6
  call void @llvm.lifetime.start.p0(i64 8, ptr %14) #9
  %27 = call noalias ptr @hwloc_bitmap_alloc()
  store ptr %27, ptr %14, align 8, !tbaa !8
  %28 = load ptr, ptr %7, align 8, !tbaa !3
  %29 = load ptr, ptr %8, align 8, !tbaa !48
  %30 = load i64, ptr %9, align 8, !tbaa !40
  %31 = load ptr, ptr %14, align 8, !tbaa !8
  %32 = load ptr, ptr %11, align 8, !tbaa !48
  %33 = load i32, ptr %12, align 4, !tbaa !10
  %34 = call i32 @hwloc_get_area_membind_by_nodeset(ptr noundef %28, ptr noundef %29, i64 noundef %30, ptr noundef %31, ptr noundef %32, i32 noundef %33)
  store i32 %34, ptr %13, align 4, !tbaa !10
  %35 = load i32, ptr %13, align 4, !tbaa !10
  %36 = icmp ne i32 %35, 0
  br i1 %36, label %42, label %37

37:                                               ; preds = %26
  %38 = load ptr, ptr %7, align 8, !tbaa !3
  %39 = load ptr, ptr %10, align 8, !tbaa !8
  %40 = load ptr, ptr %14, align 8, !tbaa !8
  %41 = call i32 @hwloc_cpuset_from_nodeset(ptr noundef %38, ptr noundef %39, ptr noundef %40)
  br label %42

42:                                               ; preds = %37, %26
  %43 = load ptr, ptr %14, align 8, !tbaa !8
  call void @hwloc_bitmap_free(ptr noundef %43)
  call void @llvm.lifetime.end.p0(i64 8, ptr %14) #9
  br label %44

44:                                               ; preds = %42, %18
  %45 = load i32, ptr %13, align 4, !tbaa !10
  call void @llvm.lifetime.end.p0(i64 4, ptr %13) #9
  ret i32 %45
}