; Function Attrs: nounwind uwtable
define i32 @hwloc_get_area_membind(ptr noundef %0, ptr noundef %1, i64 noundef %2, ptr noundef %3, ptr noundef %4, i32 noundef %5) local_unnamed_addr #0 {
  %7 = and i32 %5, 32
  %.not = icmp eq i32 %7, 0
  br i1 %.not, label %21, label %8

8:                                                ; preds = %6
  %.not.i = icmp ult i32 %5, 64
  br i1 %.not.i, label %11, label %9

9:                                                ; preds = %8
  %10 = tail call ptr @__errno_location() #12
  store i32 22, ptr %10, align 4, !tbaa !3
  br label %hwloc_get_area_membind_by_nodeset.exit

11:                                               ; preds = %8
  %.not12.i = icmp eq i64 %2, 0
  br i1 %.not12.i, label %12, label %14

12:                                               ; preds = %11
  %13 = tail call ptr @__errno_location() #12
  store i32 22, ptr %13, align 4, !tbaa !3
  br label %hwloc_get_area_membind_by_nodeset.exit

14:                                               ; preds = %11
  %15 = getelementptr inbounds nuw i8, ptr %0, i64 608
  %16 = load ptr, ptr %15, align 8, !tbaa !62
  %.not13.i = icmp eq ptr %16, null
  br i1 %.not13.i, label %19, label %17

17:                                               ; preds = %14
  %18 = tail call i32 %16(ptr noundef nonnull %0, ptr noundef %1, i64 noundef %2, ptr noundef %3, ptr noundef %4, i32 noundef %5) #14
  br label %hwloc_get_area_membind_by_nodeset.exit

19:                                               ; preds = %14
  %20 = tail call ptr @__errno_location() #12
  store i32 38, ptr %20, align 4, !tbaa !3
  br label %hwloc_get_area_membind_by_nodeset.exit

21:                                               ; preds = %6
  %22 = tail call noalias ptr @hwloc_bitmap_alloc() #14
  %.not.i19 = icmp ugt i32 %5, 63
  %.not12.i21 = icmp eq i64 %2, 0
  %or.cond = or i1 %.not.i19, %.not12.i21
  br i1 %or.cond, label %hwloc_cpuset_from_nodeset.exit.sink.split, label %23

23:                                               ; preds = %21
  %24 = getelementptr inbounds nuw i8, ptr %0, i64 608
  %25 = load ptr, ptr %24, align 8, !tbaa !62
  %.not13.i22 = icmp eq ptr %25, null
  br i1 %.not13.i22, label %hwloc_cpuset_from_nodeset.exit.sink.split, label %hwloc_get_area_membind_by_nodeset.exit23

hwloc_get_area_membind_by_nodeset.exit23:         ; preds = %23
  %26 = tail call i32 %25(ptr noundef nonnull %0, ptr noundef %1, i64 noundef %2, ptr noundef %22, ptr noundef %4, i32 noundef %5) #14
  %.not18 = icmp eq i32 %26, 0
  br i1 %.not18, label %27, label %hwloc_cpuset_from_nodeset.exit

27:                                               ; preds = %hwloc_get_area_membind_by_nodeset.exit23
  %28 = tail call i32 @hwloc_get_type_depth(ptr noundef nonnull %0, i32 noundef 14) #14
  tail call void @hwloc_bitmap_zero(ptr noundef %3) #14
  br label %29

29:                                               ; preds = %.backedge, %27
  %.0.i24 = phi ptr [ null, %27 ], [ %.0.i.i, %.backedge ]
  %.not.i.i = icmp eq ptr %.0.i24, null
  br i1 %.not.i.i, label %30, label %32

30:                                               ; preds = %29
  %31 = tail call ptr @hwloc_get_obj_by_depth(ptr noundef nonnull readonly %0, i32 noundef %28, i32 noundef 0) #13
  br label %hwloc_get_next_obj_by_depth.exit.i

32:                                               ; preds = %29
  %33 = getelementptr inbounds nuw i8, ptr %.0.i24, i64 48
  %34 = load i32, ptr %33, align 8, !tbaa !44
  %.not7.i.i = icmp eq i32 %34, %28
  br i1 %.not7.i.i, label %35, label %hwloc_cpuset_from_nodeset.exit

35:                                               ; preds = %32
  %36 = getelementptr inbounds nuw i8, ptr %.0.i24, i64 56
  %37 = load ptr, ptr %36, align 8, !tbaa !50
  br label %hwloc_get_next_obj_by_depth.exit.i

hwloc_get_next_obj_by_depth.exit.i:               ; preds = %35, %30
  %.0.i.i = phi ptr [ %37, %35 ], [ %31, %30 ]
  %.not.i25 = icmp eq ptr %.0.i.i, null
  br i1 %.not.i25, label %hwloc_cpuset_from_nodeset.exit, label %38

38:                                               ; preds = %hwloc_get_next_obj_by_depth.exit.i
  %39 = getelementptr inbounds nuw i8, ptr %.0.i.i, i64 16
  %40 = load i32, ptr %39, align 8, !tbaa !54
  %41 = tail call i32 @hwloc_bitmap_isset(ptr noundef readonly %22, i32 noundef %40) #13
  %.not12.i26 = icmp eq i32 %41, 0
  br i1 %.not12.i26, label %.backedge, label %42

42:                                               ; preds = %38
  %43 = getelementptr inbounds nuw i8, ptr %.0.i.i, i64 184
  %44 = load ptr, ptr %43, align 8, !tbaa !51
  %45 = tail call i32 @hwloc_bitmap_or(ptr noundef %3, ptr noundef %3, ptr noundef %44) #14
  %46 = icmp slt i32 %45, 0
  br i1 %46, label %hwloc_cpuset_from_nodeset.exit, label %.backedge

.backedge:                                        ; preds = %42, %38
  br label %29, !llvm.loop !56

hwloc_cpuset_from_nodeset.exit.sink.split:        ; preds = %23, %21
  %.sink = phi i32 [ 22, %21 ], [ 38, %23 ]
  %47 = tail call ptr @__errno_location() #12
  store i32 %.sink, ptr %47, align 4, !tbaa !3
  br label %hwloc_cpuset_from_nodeset.exit

hwloc_cpuset_from_nodeset.exit:                   ; preds = %42, %hwloc_get_next_obj_by_depth.exit.i, %32, %hwloc_cpuset_from_nodeset.exit.sink.split, %hwloc_get_area_membind_by_nodeset.exit23
  %.0.i2029 = phi i32 [ %26, %hwloc_get_area_membind_by_nodeset.exit23 ], [ -1, %hwloc_cpuset_from_nodeset.exit.sink.split ], [ 0, %32 ], [ 0, %hwloc_get_next_obj_by_depth.exit.i ], [ 0, %42 ]
  tail call void @hwloc_bitmap_free(ptr noundef %22) #14
  br label %hwloc_get_area_membind_by_nodeset.exit

hwloc_get_area_membind_by_nodeset.exit:           ; preds = %19, %17, %12, %9, %hwloc_cpuset_from_nodeset.exit
  %.0 = phi i32 [ %.0.i2029, %hwloc_cpuset_from_nodeset.exit ], [ -1, %9 ], [ %18, %17 ], [ -1, %19 ], [ -1, %12 ]
  ret i32 %.0
}